(lp0
F2.8803229410762947
aF1.2825345970073203
aF1.4908805443203972
aF0.829514872311476
aF1.8029794855144583
aF0.7056814233841219
aF7.019918910947408
aF-1.5248431281577797
aF2.4135546680502995
aF4.545433650688442
aF-1.5010884448161335
aF2.5013555537500887
aF3.7257762016697216
aF1.4425557545841408
aF4.035496958714122
aF2.2578176889822723
aF1.5401795883959586
aF1.3681303855183433
aF1.1148812714737801
aF1.7159639966696103
aF-1.8101344387763083
aF-1.3103050625586041
aF-0.1766954736684696
aF-1.7256595820730323
aF1.1027405909506494
aF4.429011977701943
aF2.511497048674961
aF4.73810092107637
aF-1.1073985851126884
aF-0.4807987959631186
aF3.0068301337665355
aF2.087994105505875
aF3.3661761323362276
aF-0.852555000358564
aF-0.2910844807781816
aF4.168181873254465
aF0.7808222799525075
aF4.620064111250297
aF-1.0294540783456947
aF2.2785762117554635
aF3.448724965640755
aF3.1273043576818136
aF5.352936223422553
aF-1.104225656836621
aF-0.6128842770702305
aF1.7718894690052251
aF4.496365036380013
aF-1.7111569639663853
aF1.7415939497304427
aF6.65373192489056
aF3.6712105780603426
aF3.896230200468944
aF1.2806534760399593
aF-0.32282533232660104
aF0.4378303688767484
aF-2.971350904537232
aF4.42455246412449
aF-0.39278720156884295
aF2.021222302887657
aF1.7110372716550515
aF1.0878994011045475
aF1.2867571752357505
aF0.7301131040221344
aF-1.5065030181711667
aF4.984375233845493
aF2.3558210348426227
aF1.045680001096489
aF2.5006509096438068
aF1.073052937805123
aF3.0276638579444644
aF1.8009999288652492
aF0.9065871932392842
aF1.4257410274369504
aF2.4900909765477817
aF1.5853515547469608
aF1.1115259415854515
aF1.1383908589127134
aF0.7106049253567575
aF2.9930099688571685
aF4.835841235842325
aF4.238005216366945
aF0.6213286331579152
aF2.471395493843574
aF2.411642161794148
aF5.582497726672493
aF-0.25824781741232994
aF0.36753644478694847
aF-0.06942735521413845
aF2.1097091453443197
aF1.4234414104348871
aF1.119571743991533
aF0.2505443110253731
aF0.8278133272721572
aF0.09008905867536243
aF1.0064703211248318
aF2.5171028072725505
aF1.7348408880194324
aF2.975549918037476
aF1.1896519924966364
aF0.48705887705707784
a.