(lp0
F-0.3118983373263433
aF2.395965030230969
aF1.962699739641478
aF2.955471738677506
aF7.498046925774633
aF3.2518038217517082
aF1.06164479544439
aF3.8848285964914444
aF3.1138751880070643
aF-0.8162773140519062
aF-0.19180416247878185
aF1.09684929372369
aF-1.4912401593410505
aF1.9018928751983712
aF3.613560966397434
aF-1.8884685021290268
aF3.461591476745231
aF3.3162116965407704
aF1.31394247695305
aF-0.2192806426154983
aF2.3187889402334427
aF0.21408526909406733
aF-0.5986963979028568
aF1.7593583306857696
aF1.9213021067292337
aF1.956948337945044
aF2.1168823044150997
aF3.1682083061015067
aF5.432252743637384
aF1.0471637004433876
aF0.2027425098826463
aF1.8819204723584657
aF0.8284221502554289
aF2.266833455683174
aF5.958517712240193
aF2.4291877361822065
aF4.6418665678032935
aF0.5776246055881955
aF0.05959786601083672
aF-0.11613824315625365
aF0.3990074868017517
aF1.6507031260641272
aF-0.4231289443662696
aF1.544218571600251
aF0.8143233055644894
aF-0.47668966085429454
aF3.1340488651217493
aF-2.213182032000093
aF2.3481822789008673
aF3.3998059278850663
aF3.6509829611660005
aF0.4746252727350688
aF4.058475937021889
aF-0.30971304852863324
aF1.7884690377388492
aF2.218838843408511
aF-1.054981776295735
aF0.29449833323858
aF1.518272209820983
aF-1.2165857245804679
aF3.3185696414428945
aF1.6048018569651128
aF1.451091001719483
aF-0.2835239567933283
aF2.9817145742662046
aF3.33104211421555
aF1.8553057132284456
aF1.7855841165227098
aF0.6686506277270451
aF0.994684036949058
aF3.398026225699077
aF1.3025372434289624
aF-0.2278851058983704
aF0.8669408028378776
aF2.349204940539193
aF0.21208869897412486
aF1.37044905812329
aF3.0500768981601096
aF-0.7536787722588656
aF1.0423091179808104
aF0.3541217264034011
aF2.9844400909596667
aF2.86021249446562
aF1.9276451487561863
aF-3.070744544123385
aF1.1372801367574064
aF-0.118624839722965
aF0.1734828231037171
aF1.3631785535353114
aF0.3950228183996731
aF3.6519339964549933
aF1.6598263338350636
aF-0.22863447447034546
aF2.1996684693017645
aF0.04112436091384786
aF3.506274085214119
aF2.3146019348600877
aF-2.2024101907794464
aF-0.7038352565207622
aF1.3198081880722385
a.